target datalayout = "e-m:e-p270:32:32-p271:32:32-p272:64:64-i64:64-i128:128-f80:128-n8:16:32:64-S128"
target triple = "x86_64-pc-linux-gnu"

@.str.267 = private unnamed_addr constant [6 x i8] c"TLSv1\00", align 1

; Function Attrs: nounwind uwtable
define internal zeroext i1 @sslVerifyProtocolRange(ptr noundef %0, ptr noundef %1) #0 {
  %3 = alloca i1, align 1
  %4 = alloca ptr, align 8
  %5 = alloca ptr, align 8
  store ptr %0, ptr %4, align 8
  store ptr %1, ptr %5, align 8
  %6 = load ptr, ptr %4, align 8
  %7 = icmp eq ptr %6, null
  br i1 %7, label %19, label %8

8:                                                ; preds = %2
  %9 = load ptr, ptr %5, align 8
  %10 = icmp eq ptr %9, null
  br i1 %10, label %19, label %11

11:                                               ; preds = %8
  %12 = load ptr, ptr %4, align 8
  %13 = call i64 @strlen(ptr noundef %12) #13
  %14 = icmp eq i64 %13, 0
  br i1 %14, label %19, label %15

15:                                               ; preds = %11
  %16 = load ptr, ptr %5, align 8
  %17 = call i64 @strlen(ptr noundef %16) #13
  %18 = icmp eq i64 %17, 0
  br i1 %18, label %19, label %20

19:                                               ; preds = %15, %11, %8, %2
  store i1 true, ptr %3, align 1
  br label %37

20:                                               ; preds = %15
  %21 = load ptr, ptr %4, align 8
  %22 = call i32 @pg_strcasecmp(ptr noundef %21, ptr noundef @.str.267)
  %23 = icmp eq i32 %22, 0
  br i1 %23, label %24, label %25

24:                                               ; preds = %20
  store i1 true, ptr %3, align 1
  br label %37

25:                                               ; preds = %20
  %26 = load ptr, ptr %5, align 8
  %27 = call i32 @pg_strcasecmp(ptr noundef %26, ptr noundef @.str.267)
  %28 = icmp eq i32 %27, 0
  br i1 %28, label %29, label %30

29:                                               ; preds = %25
  store i1 false, ptr %3, align 1
  br label %37

30:                                               ; preds = %25
  %31 = load ptr, ptr %4, align 8
  %32 = load ptr, ptr %5, align 8
  %33 = call i32 @pg_strcasecmp(ptr noundef %31, ptr noundef %32)
  %34 = icmp sgt i32 %33, 0
  br i1 %34, label %35, label %36

35:                                               ; preds = %30
  store i1 false, ptr %3, align 1
  br label %37

36:                                               ; preds = %30
  store i1 true, ptr %3, align 1
  br label %37

37:                                               ; preds = %36, %35, %29, %24, %19
  %38 = load i1, ptr %3, align 1
  ret i1 %38
}