; Function Attrs: nounwind uwtable
define internal fastcc zeroext i1 @sslVerifyProtocolRange(ptr noundef %0, ptr noundef %1) unnamed_addr #0 {
  %3 = icmp eq ptr %0, null
  %4 = icmp eq ptr %1, null
  %or.cond = or i1 %3, %4
  br i1 %or.cond, label %18, label %5

5:                                                ; preds = %2
  %char0 = load i8, ptr %0, align 1
  %6 = icmp eq i8 %char0, 0
  br i1 %6, label %18, label %7

7:                                                ; preds = %5
  %char012 = load i8, ptr %1, align 1
  %8 = icmp eq i8 %char012, 0
  br i1 %8, label %18, label %9

9:                                                ; preds = %7
  %10 = tail call i32 @pg_strcasecmp(ptr noundef nonnull %0, ptr noundef nonnull @.str.267) #25
  %11 = icmp eq i32 %10, 0
  br i1 %11, label %18, label %12

12:                                               ; preds = %9
  %13 = tail call i32 @pg_strcasecmp(ptr noundef nonnull %1, ptr noundef nonnull @.str.267) #25
  %14 = icmp eq i32 %13, 0
  br i1 %14, label %18, label %15

15:                                               ; preds = %12
  %16 = tail call i32 @pg_strcasecmp(ptr noundef nonnull %0, ptr noundef nonnull %1) #25
  %17 = icmp slt i32 %16, 1
  br label %18

18:                                               ; preds = %15, %12, %9, %2, %5, %7
  %.0 = phi i1 [ true, %7 ], [ true, %5 ], [ true, %2 ], [ true, %9 ], [ false, %12 ], [ %17, %15 ]
  ret i1 %.0
}